target datalayout = "e-m:e-p270:32:32-p271:32:32-p272:64:64-i64:64-i128:128-f80:128-n8:16:32:64-S128"
target triple = "x86_64-pc-linux-gnu"

%"class.absl::lts_20240722::log_internal::Voidify" = type { i8 }
%"class.absl::lts_20240722::log_internal::LogMessageFatal" = type { %"class.absl::lts_20240722::log_internal::LogMessage" }
%"class.absl::lts_20240722::log_internal::LogMessage" = type { %"class.absl::lts_20240722::base_internal::ErrnoSaver", %"class.std::unique_ptr" }
%"class.absl::lts_20240722::base_internal::ErrnoSaver" = type { i32 }
%"class.std::unique_ptr" = type { %"struct.std::__uniq_ptr_data" }
%"struct.std::__uniq_ptr_data" = type { %"class.std::__uniq_ptr_impl" }
%"class.std::__uniq_ptr_impl" = type { %"class.std::tuple" }
%"class.std::tuple" = type { %"struct.std::_Tuple_impl" }
%"struct.std::_Tuple_impl" = type { %"struct.std::_Head_base.1" }
%"struct.std::_Head_base.1" = type { ptr }
%"class.std::basic_string_view" = type { i64, ptr }
%struct.grpc_resolved_address = type { [128 x i8], i32 }
%struct.sockaddr = type { i16, [14 x i8] }
%struct.sockaddr_in6 = type { i16, i16, i32, %struct.in6_addr, i32 }
%struct.in6_addr = type { %union.anon }
%union.anon = type { [4 x i32] }
%struct.sockaddr_in = type { i16, i16, %struct.in_addr, [8 x i8] }
%struct.in_addr = type { i32 }

@.str = private unnamed_addr constant [132 x i8] c"generated/home/dtcxzyw/WorkSpace/Projects/compilers/llvm-opt-benchmark/bench/grpc/grpc/src/core/lib/address_utils/sockaddr_utils.cc\00", align 1
@_ZL15kV4MappedPrefix = internal constant [12 x i8] c"\00\00\00\00\00\00\00\00\00\00\FF\FF", align 1
@.str.2 = private unnamed_addr constant [36 x i8] c"resolved_addr != resolved_addr6_out\00", align 1

; Function Attrs: noinline noreturn nounwind uwtable
define linkonce_odr hidden void @__clang_call_terminate(ptr noundef %0) #17 comdat {
  %2 = call ptr @__cxa_begin_catch(ptr %0) #3
  call void @_ZSt9terminatev() #22
  unreachable
}

; Function Attrs: mustprogress nounwind uwtable
define linkonce_odr noundef i64 @_ZNSt11char_traitsIcE6lengthEPKc(ptr noundef %0) #7 comdat align 2 {
  %2 = alloca ptr, align 8
  store ptr %0, ptr %2, align 8, !tbaa !33
  %3 = load ptr, ptr %2, align 8, !tbaa !33
  %4 = call i64 @strlen(ptr noundef %3) #3
  ret i64 %4
}

; Function Attrs: mustprogress nounwind uwtable
define linkonce_odr void @_ZNKO4absl12lts_2024072212log_internal7VoidifyaaINS1_10LogMessageEEEvRKT_(ptr noundef nonnull align 1 dereferenceable(1) %0, ptr noundef nonnull align 8 dereferenceable(16) %1) #7 comdat align 2 {
  %3 = alloca ptr, align 8
  %4 = alloca ptr, align 8
  store ptr %0, ptr %3, align 8, !tbaa !27
  store ptr %1, ptr %4, align 8, !tbaa !29
  ret void
}

; Function Attrs: mustprogress nounwind uwtable
define linkonce_odr noundef nonnull align 8 dereferenceable(16) ptr @_ZN4absl12lts_2024072212log_internal10LogMessage14InternalStreamEv(ptr noundef nonnull align 8 dereferenceable(16) %0) #7 comdat align 2 {
  %2 = alloca ptr, align 8
  store ptr %0, ptr %2, align 8, !tbaa !29
  %3 = load ptr, ptr %2, align 8
  ret ptr %3
}

; Function Attrs: mustprogress nounwind uwtable
define linkonce_odr void @_ZNSt17basic_string_viewIcSt11char_traitsIcEEC2EPKc(ptr noundef nonnull align 8 dereferenceable(16) %0, ptr noundef nonnull %1) unnamed_addr #7 comdat align 2 personality ptr @__gxx_personality_v0 {
  %3 = alloca ptr, align 8
  %4 = alloca ptr, align 8
  store ptr %0, ptr %3, align 8, !tbaa !31
  store ptr %1, ptr %4, align 8, !tbaa !33
  %5 = load ptr, ptr %3, align 8
  %6 = getelementptr inbounds nuw %"class.std::basic_string_view", ptr %5, i32 0, i32 0
  %7 = load ptr, ptr %4, align 8, !tbaa !33
  %8 = invoke noundef i64 @_ZNSt11char_traitsIcE6lengthEPKc(ptr noundef %7)
          to label %9 unwind label %12

9:                                                ; preds = %2
  store i64 %8, ptr %6, align 8, !tbaa !35
  %10 = getelementptr inbounds nuw %"class.std::basic_string_view", ptr %5, i32 0, i32 1
  %11 = load ptr, ptr %4, align 8, !tbaa !33
  store ptr %11, ptr %10, align 8, !tbaa !38
  ret void

12:                                               ; preds = %2
  %13 = landingpad { ptr, i32 }
          catch ptr null
  %14 = extractvalue { ptr, i32 } %13, 0
  call void @__clang_call_terminate(ptr %14) #22
  unreachable
}

; Function Attrs: mustprogress uwtable
define noundef i32 @_Z25grpc_sockaddr_to_v4mappedPK21grpc_resolved_addressPS_(ptr noundef %0, ptr noundef %1) #4 personality ptr @__gxx_personality_v0 {
  %3 = alloca i32, align 4
  %4 = alloca ptr, align 8
  %5 = alloca ptr, align 8
  %6 = alloca %"class.absl::lts_20240722::log_internal::Voidify", align 1
  %7 = alloca %"class.absl::lts_20240722::log_internal::LogMessageFatal", align 8
  %8 = alloca i1, align 1
  %9 = alloca %"class.std::basic_string_view", align 8
  %10 = alloca i1, align 1
  %11 = alloca ptr, align 8
  %12 = alloca i32, align 4
  %13 = alloca ptr, align 8
  %14 = alloca ptr, align 8
  %15 = alloca ptr, align 8
  %16 = alloca i32, align 4
  store ptr %0, ptr %4, align 8, !tbaa !3
  store ptr %1, ptr %5, align 8, !tbaa !3
  %17 = load ptr, ptr %4, align 8, !tbaa !3
  %18 = load ptr, ptr %5, align 8, !tbaa !3
  %19 = icmp ne ptr %17, %18
  %20 = xor i1 %19, true
  %21 = zext i1 %20 to i64
  %22 = call i64 @llvm.expect.i64(i64 %21, i64 0)
  %23 = icmp ne i64 %22, 0
  call void @llvm.lifetime.start.p0(i64 1, ptr %6) #3
  store i1 false, ptr %8, align 1
  store i1 false, ptr %10, align 1
  br i1 %23, label %25, label %24

24:                                               ; preds = %2
  br label %33

25:                                               ; preds = %2
  call void @llvm.lifetime.start.p0(i64 16, ptr %7) #3
  store i1 true, ptr %8, align 1
  call void @_ZNSt17basic_string_viewIcSt11char_traitsIcEEC2EPKc(ptr noundef nonnull align 8 dereferenceable(16) %9, ptr noundef @.str.2) #3
  %26 = getelementptr inbounds nuw { i64, ptr }, ptr %9, i32 0, i32 0
  %27 = load i64, ptr %26, align 8
  %28 = getelementptr inbounds nuw { i64, ptr }, ptr %9, i32 0, i32 1
  %29 = load ptr, ptr %28, align 8
  call void @_ZN4absl12lts_2024072212log_internal15LogMessageFatalC1EPKciSt17basic_string_viewIcSt11char_traitsIcEE(ptr noundef nonnull align 8 dereferenceable(16) %7, ptr noundef @.str, i32 noundef 142, i64 %27, ptr %29) #21
  store i1 true, ptr %10, align 1
  %30 = invoke noundef nonnull align 8 dereferenceable(16) ptr @_ZN4absl12lts_2024072212log_internal10LogMessage14InternalStreamEv(ptr noundef nonnull align 8 dereferenceable(16) %7)
          to label %31 unwind label %36

31:                                               ; preds = %25
  invoke void @_ZNKO4absl12lts_2024072212log_internal7VoidifyaaINS1_10LogMessageEEEvRKT_(ptr noundef nonnull align 1 dereferenceable(1) %6, ptr noundef nonnull align 8 dereferenceable(16) %30)
          to label %32 unwind label %36

32:                                               ; preds = %31
  br label %33

33:                                               ; preds = %32, %24
  %34 = load i1, ptr %10, align 1
  br i1 %34, label %35, label %42

35:                                               ; preds = %33
  call void @_ZN4absl12lts_2024072212log_internal15LogMessageFatalD1Ev(ptr noundef nonnull align 8 dereferenceable(16) %7) #22
  unreachable

36:                                               ; preds = %31, %25
  %37 = landingpad { ptr, i32 }
          cleanup
  %38 = extractvalue { ptr, i32 } %37, 0
  store ptr %38, ptr %11, align 8
  %39 = extractvalue { ptr, i32 } %37, 1
  store i32 %39, ptr %12, align 4
  %40 = load i1, ptr %10, align 1
  br i1 %40, label %79, label %81

41:                                               ; No predecessors!
  br label %42

42:                                               ; preds = %41, %33
  %43 = load i1, ptr %8, align 1
  br i1 %43, label %44, label %45

44:                                               ; preds = %42
  call void @llvm.lifetime.end.p0(i64 16, ptr %7) #3
  br label %45

45:                                               ; preds = %44, %42
  call void @llvm.lifetime.end.p0(i64 1, ptr %6) #3
  call void @llvm.lifetime.start.p0(i64 8, ptr %13) #3
  %46 = load ptr, ptr %4, align 8, !tbaa !3
  %47 = getelementptr inbounds nuw %struct.grpc_resolved_address, ptr %46, i32 0, i32 0
  %48 = getelementptr inbounds [128 x i8], ptr %47, i64 0, i64 0
  store ptr %48, ptr %13, align 8, !tbaa !8
  call void @llvm.lifetime.start.p0(i64 8, ptr %14) #3
  %49 = load ptr, ptr %5, align 8, !tbaa !3
  %50 = getelementptr inbounds nuw %struct.grpc_resolved_address, ptr %49, i32 0, i32 0
  %51 = getelementptr inbounds [128 x i8], ptr %50, i64 0, i64 0
  store ptr %51, ptr %14, align 8, !tbaa !15
  %52 = load ptr, ptr %13, align 8, !tbaa !8
  %53 = getelementptr inbounds nuw %struct.sockaddr, ptr %52, i32 0, i32 0
  %54 = load i16, ptr %53, align 2, !tbaa !12
  %55 = zext i16 %54 to i32
  %56 = icmp eq i32 %55, 2
  br i1 %56, label %57, label %85

57:                                               ; preds = %45
  call void @llvm.lifetime.start.p0(i64 8, ptr %15) #3
  %58 = load ptr, ptr %13, align 8, !tbaa !8
  store ptr %58, ptr %15, align 8, !tbaa !10
  %59 = load ptr, ptr %5, align 8, !tbaa !3
  call void @llvm.memset.p0.i64(ptr align 4 %59, i8 0, i64 132, i1 false)
  %60 = load ptr, ptr %14, align 8, !tbaa !15
  %61 = getelementptr inbounds nuw %struct.sockaddr_in6, ptr %60, i32 0, i32 0
  store i16 10, ptr %61, align 4, !tbaa !39
  %62 = load ptr, ptr %14, align 8, !tbaa !15
  %63 = getelementptr inbounds nuw %struct.sockaddr_in6, ptr %62, i32 0, i32 3
  %64 = getelementptr inbounds nuw %struct.in6_addr, ptr %63, i32 0, i32 0
  %65 = getelementptr inbounds [16 x i8], ptr %64, i64 0, i64 0
  call void @llvm.memcpy.p0.p0.i64(ptr align 4 %65, ptr align 1 @_ZL15kV4MappedPrefix, i64 12, i1 false)
  %66 = load ptr, ptr %14, align 8, !tbaa !15
  %67 = getelementptr inbounds nuw %struct.sockaddr_in6, ptr %66, i32 0, i32 3
  %68 = getelementptr inbounds nuw %struct.in6_addr, ptr %67, i32 0, i32 0
  %69 = getelementptr inbounds [16 x i8], ptr %68, i64 0, i64 12
  %70 = load ptr, ptr %15, align 8, !tbaa !10
  %71 = getelementptr inbounds nuw %struct.sockaddr_in, ptr %70, i32 0, i32 2
  call void @llvm.memcpy.p0.p0.i64(ptr align 4 %69, ptr align 4 %71, i64 4, i1 false)
  %72 = load ptr, ptr %15, align 8, !tbaa !10
  %73 = getelementptr inbounds nuw %struct.sockaddr_in, ptr %72, i32 0, i32 1
  %74 = load i16, ptr %73, align 2, !tbaa !24
  %75 = load ptr, ptr %14, align 8, !tbaa !15
  %76 = getelementptr inbounds nuw %struct.sockaddr_in6, ptr %75, i32 0, i32 1
  store i16 %74, ptr %76, align 2, !tbaa !21
  %77 = load ptr, ptr %5, align 8, !tbaa !3
  %78 = getelementptr inbounds nuw %struct.grpc_resolved_address, ptr %77, i32 0, i32 1
  store i32 28, ptr %78, align 4, !tbaa !25
  store i32 1, ptr %3, align 4
  store i32 1, ptr %16, align 4
  call void @llvm.lifetime.end.p0(i64 8, ptr %15) #3
  br label %86

79:                                               ; preds = %36
  call void @_ZN4absl12lts_2024072212log_internal15LogMessageFatalD1Ev(ptr noundef nonnull align 8 dereferenceable(16) %7) #22
  unreachable

80:                                               ; No predecessors!
  br label %81

81:                                               ; preds = %80, %36
  %82 = load i1, ptr %8, align 1
  br i1 %82, label %83, label %84

83:                                               ; preds = %81
  call void @llvm.lifetime.end.p0(i64 16, ptr %7) #3
  br label %84

84:                                               ; preds = %83, %81
  call void @llvm.lifetime.end.p0(i64 1, ptr %6) #3
  br label %88

85:                                               ; preds = %45
  store i32 0, ptr %3, align 4
  store i32 1, ptr %16, align 4
  br label %86

86:                                               ; preds = %85, %57
  call void @llvm.lifetime.end.p0(i64 8, ptr %14) #3
  call void @llvm.lifetime.end.p0(i64 8, ptr %13) #3
  %87 = load i32, ptr %3, align 4
  ret i32 %87

88:                                               ; preds = %84
  %89 = load ptr, ptr %11, align 8
  %90 = load i32, ptr %12, align 4
  %91 = insertvalue { ptr, i32 } poison, ptr %89, 0
  %92 = insertvalue { ptr, i32 } %91, i32 %90, 1
  resume { ptr, i32 } %92
}