; Function Attrs: mustprogress uwtable
define noundef range(i32 0, 2) i32 @_Z25grpc_sockaddr_to_v4mappedPK21grpc_resolved_addressPS_(ptr noundef readonly %0, ptr noundef writeonly %1) local_unnamed_addr #3 personality ptr @__gxx_personality_v0 {
  %3 = alloca %"class.absl::lts_20240722::log_internal::LogMessageFatal", align 8
  %.not = icmp eq ptr %0, %1
  br i1 %.not, label %4, label %.critedge, !prof !3

4:                                                ; preds = %2
  call void @llvm.lifetime.start.p0(i64 16, ptr nonnull %3) #23
  call void @_ZN4absl12lts_2024072212log_internal15LogMessageFatalC1EPKciSt17basic_string_viewIcSt11char_traitsIcEE(ptr noundef nonnull align 8 dereferenceable(16) %3, ptr noundef nonnull @.str, i32 noundef 142, i64 35, ptr nonnull @.str.2) #24
  call void @_ZN4absl12lts_2024072212log_internal15LogMessageFatalD1Ev(ptr noundef nonnull align 8 dereferenceable(16) %3) #25
  unreachable

.critedge:                                        ; preds = %2
  %5 = load i16, ptr %0, align 2, !tbaa !4
  %6 = icmp eq i16 %5, 2
  br i1 %6, label %7, label %16

7:                                                ; preds = %.critedge
  tail call void @llvm.memset.p0.i64(ptr noundef nonnull align 4 dereferenceable(132) %1, i8 0, i64 132, i1 false)
  store i16 10, ptr %1, align 4, !tbaa !19
  %8 = getelementptr inbounds nuw i8, ptr %1, i64 8
  tail call void @llvm.memcpy.p0.p0.i64(ptr noundef nonnull align 4 dereferenceable(12) %8, ptr noundef nonnull align 1 dereferenceable(12) @_ZL15kV4MappedPrefix, i64 12, i1 false)
  %9 = getelementptr inbounds nuw i8, ptr %1, i64 20
  %10 = getelementptr inbounds nuw i8, ptr %0, i64 4
  %11 = load i32, ptr %10, align 4
  store i32 %11, ptr %9, align 4
  %12 = getelementptr inbounds nuw i8, ptr %0, i64 2
  %13 = load i16, ptr %12, align 2, !tbaa !16
  %14 = getelementptr inbounds nuw i8, ptr %1, i64 2
  store i16 %13, ptr %14, align 2, !tbaa !13
  %15 = getelementptr inbounds nuw i8, ptr %1, i64 128
  store i32 28, ptr %15, align 4, !tbaa !17
  br label %16

16:                                               ; preds = %.critedge, %7
  %.0 = phi i32 [ 1, %7 ], [ 0, %.critedge ]
  ret i32 %.0
}